; Function Attrs: nounwind uwtable
define ptr @l_Lean_Compiler_LCNF_initFn____x40_Lean_Compiler_LCNF_PhaseExt___hyg_124_(ptr noundef %0) local_unnamed_addr #1 {
  %2 = load ptr, ptr @l_Lean_Compiler_LCNF_initFn____x40_Lean_Compiler_LCNF_PhaseExt___hyg_124____closed__4, align 8, !tbaa !9
  %3 = load ptr, ptr @l_Lean_Compiler_LCNF_mkDeclExt___closed__2, align 8, !tbaa !9
  %4 = load ptr, ptr @l_Lean_Compiler_LCNF_mkDeclExt___closed__5, align 8, !tbaa !9
  %5 = load ptr, ptr @l_Lean_Compiler_LCNF_mkDeclExt___closed__6, align 8, !tbaa !9
  %6 = load ptr, ptr @l_Lean_Compiler_LCNF_mkDeclExt___closed__4, align 8, !tbaa !9
  tail call void @lean_inc_heartbeat() #6
  %7 = tail call noalias ptr @mi_malloc_small(i64 noundef 56) #6
  %8 = icmp eq ptr %7, null
  br i1 %8, label %9, label %l_Lean_Compiler_LCNF_mkDeclExt.exit

9:                                                ; preds = %1
  tail call void @lean_internal_panic_out_of_memory() #7
  unreachable

l_Lean_Compiler_LCNF_mkDeclExt.exit:              ; preds = %1
  %10 = getelementptr inbounds nuw i8, ptr %7, i64 4
  %11 = getelementptr inbounds nuw i8, ptr %7, i64 48
  store i64 256, ptr %11, align 8, !tbaa !14
  store i32 1, ptr %7, align 4, !tbaa !4
  store i32 327736, ptr %10, align 4
  %12 = getelementptr inbounds nuw i8, ptr %7, i64 8
  store ptr %2, ptr %12, align 8, !tbaa !9
  %13 = getelementptr inbounds nuw i8, ptr %7, i64 16
  store ptr %3, ptr %13, align 8, !tbaa !9
  %14 = getelementptr inbounds nuw i8, ptr %7, i64 24
  store ptr %4, ptr %14, align 8, !tbaa !9
  %15 = getelementptr inbounds nuw i8, ptr %7, i64 32
  store ptr %5, ptr %15, align 8, !tbaa !9
  %16 = getelementptr inbounds nuw i8, ptr %7, i64 40
  store ptr %6, ptr %16, align 8, !tbaa !9
  %17 = tail call ptr @l_Lean_registerSimplePersistentEnvExtension___rarg(ptr noundef nonnull %7, ptr noundef %0) #6
  ret ptr %17
}